target datalayout = "e-m:e-p270:32:32-p271:32:32-p272:64:64-i64:64-i128:128-f80:128-n8:16:32:64-S128"
target triple = "x86_64-pc-linux-gnu"

%struct.SlruCtlData = type { ptr, i16, i8, i32, ptr, [64 x i8] }
%union.LWLockPadded = type { %struct.LWLock, [112 x i8] }
%struct.LWLock = type { i16, %struct.pg_atomic_uint32, %struct.proclist_head }
%struct.pg_atomic_uint32 = type { i32 }
%struct.proclist_head = type { i32, i32 }
%struct.MultiXactStateData = type { i32, i32, i8, i32, i32, i32, i8, i32, i32, i32, i32, i32, %struct.ConditionVariable, [0 x i32] }
%struct.ConditionVariable = type { i8, %struct.proclist_head }
%struct.SlruSharedData = type { i32, ptr, ptr, ptr, ptr, ptr, ptr, ptr, ptr, ptr, i32, %struct.pg_atomic_uint64, i32 }
%struct.pg_atomic_uint64 = type { i64 }

@MainLWLockArray = external global ptr, align 8
@MultiXactState = internal global ptr null, align 8
@MultiXactOffsetCtlData = internal global %struct.SlruCtlData zeroinitializer, align 8
@MultiXactMemberCtlData = internal global %struct.SlruCtlData zeroinitializer, align 8

; Function Attrs: inlinehint nounwind uwtable
define internal void @pg_atomic_write_u64_impl(ptr noundef %0, i64 noundef %1) #4 {
  %3 = alloca ptr, align 8
  %4 = alloca i64, align 8
  store ptr %0, ptr %3, align 8
  store i64 %1, ptr %4, align 8
  %5 = load i64, ptr %4, align 8
  %6 = load ptr, ptr %3, align 8
  %7 = getelementptr inbounds nuw %struct.pg_atomic_uint64, ptr %6, i32 0, i32 0
  store volatile i64 %5, ptr %7, align 8
  ret void
}

; Function Attrs: inlinehint nounwind uwtable
define internal i32 @MXOffsetToMemberOffset(i32 noundef %0) #4 {
  %2 = alloca i32, align 4
  %3 = alloca i32, align 4
  store i32 %0, ptr %2, align 4
  call void @llvm.lifetime.start.p0(i64 4, ptr %3) #9
  %4 = load i32, ptr %2, align 4
  %5 = urem i32 %4, 4
  store i32 %5, ptr %3, align 4
  %6 = load i32, ptr %2, align 4
  %7 = call i32 @MXOffsetToFlagsOffset(i32 noundef %6)
  %8 = add i32 %7, 4
  %9 = sext i32 %8 to i64
  %10 = load i32, ptr %3, align 4
  %11 = sext i32 %10 to i64
  %12 = mul i64 %11, 4
  %13 = add i64 %9, %12
  %14 = trunc i64 %13 to i32
  call void @llvm.lifetime.end.p0(i64 4, ptr %3) #9
  ret i32 %14
}

; Function Attrs: inlinehint nounwind uwtable
define internal i32 @MXOffsetToFlagsOffset(i32 noundef %0) #4 {
  %2 = alloca i32, align 4
  %3 = alloca i32, align 4
  %4 = alloca i32, align 4
  %5 = alloca i32, align 4
  store i32 %0, ptr %2, align 4
  call void @llvm.lifetime.start.p0(i64 4, ptr %3) #9
  %6 = load i32, ptr %2, align 4
  %7 = udiv i32 %6, 4
  store i32 %7, ptr %3, align 4
  call void @llvm.lifetime.start.p0(i64 4, ptr %4) #9
  %8 = load i32, ptr %3, align 4
  %9 = zext i32 %8 to i64
  %10 = urem i64 %9, 409
  %11 = trunc i64 %10 to i32
  store i32 %11, ptr %4, align 4
  call void @llvm.lifetime.start.p0(i64 4, ptr %5) #9
  %12 = load i32, ptr %4, align 4
  %13 = sext i32 %12 to i64
  %14 = mul i64 %13, 20
  %15 = trunc i64 %14 to i32
  store i32 %15, ptr %5, align 4
  %16 = load i32, ptr %5, align 4
  call void @llvm.lifetime.end.p0(i64 4, ptr %5) #9
  call void @llvm.lifetime.end.p0(i64 4, ptr %4) #9
  call void @llvm.lifetime.end.p0(i64 4, ptr %3) #9
  ret i32 %16
}

; Function Attrs: inlinehint nounwind uwtable
define internal i64 @MXOffsetToMemberPage(i32 noundef %0) #4 {
  %2 = alloca i32, align 4
  store i32 %0, ptr %2, align 4
  %3 = load i32, ptr %2, align 4
  %4 = zext i32 %3 to i64
  %5 = udiv i64 %4, 1636
  ret i64 %5
}

; Function Attrs: inlinehint nounwind uwtable
define internal ptr @SimpleLruGetBankLock(ptr noundef %0, i64 noundef %1) #4 {
  %3 = alloca ptr, align 8
  %4 = alloca i64, align 8
  %5 = alloca i32, align 4
  store ptr %0, ptr %3, align 8
  store i64 %1, ptr %4, align 8
  call void @llvm.lifetime.start.p0(i64 4, ptr %5) #9
  %6 = load i64, ptr %4, align 8
  %7 = load ptr, ptr %3, align 8
  %8 = getelementptr inbounds nuw %struct.SlruCtlData, ptr %7, i32 0, i32 1
  %9 = load i16, ptr %8, align 8
  %10 = zext i16 %9 to i64
  %11 = srem i64 %6, %10
  %12 = trunc i64 %11 to i32
  store i32 %12, ptr %5, align 4
  %13 = load ptr, ptr %3, align 8
  %14 = getelementptr inbounds nuw %struct.SlruCtlData, ptr %13, i32 0, i32 0
  %15 = load ptr, ptr %14, align 8
  %16 = getelementptr inbounds nuw %struct.SlruSharedData, ptr %15, i32 0, i32 7
  %17 = load ptr, ptr %16, align 8
  %18 = load i32, ptr %5, align 4
  %19 = sext i32 %18 to i64
  %20 = getelementptr inbounds %union.LWLockPadded, ptr %17, i64 %19
  call void @llvm.lifetime.end.p0(i64 4, ptr %5) #9
  ret ptr %20
}

; Function Attrs: inlinehint nounwind uwtable
define internal i32 @MultiXactIdToOffsetEntry(i32 noundef %0) #4 {
  %2 = alloca i32, align 4
  store i32 %0, ptr %2, align 4
  %3 = load i32, ptr %2, align 4
  %4 = zext i32 %3 to i64
  %5 = urem i64 %4, 2048
  %6 = trunc i64 %5 to i32
  ret i32 %6
}

; Function Attrs: inlinehint nounwind uwtable
define internal void @pg_atomic_write_u64(ptr noundef %0, i64 noundef %1) #4 {
  %3 = alloca ptr, align 8
  %4 = alloca i64, align 8
  store ptr %0, ptr %3, align 8
  store i64 %1, ptr %4, align 8
  %5 = load ptr, ptr %3, align 8
  %6 = load i64, ptr %4, align 8
  call void @pg_atomic_write_u64_impl(ptr noundef %5, i64 noundef %6)
  ret void
}

; Function Attrs: inlinehint nounwind uwtable
define internal i64 @MultiXactIdToOffsetPage(i32 noundef %0) #4 {
  %2 = alloca i32, align 4
  store i32 %0, ptr %2, align 4
  %3 = load i32, ptr %2, align 4
  %4 = zext i32 %3 to i64
  %5 = udiv i64 %4, 2048
  ret i64 %5
}

; Function Attrs: nounwind uwtable
define dso_local void @TrimMultiXact() #0 {
  %1 = alloca i32, align 4
  %2 = alloca i32, align 4
  %3 = alloca i32, align 4
  %4 = alloca i32, align 4
  %5 = alloca i64, align 8
  %6 = alloca i32, align 4
  %7 = alloca i32, align 4
  %8 = alloca i32, align 4
  %9 = alloca ptr, align 8
  %10 = alloca ptr, align 8
  %11 = alloca ptr, align 8
  %12 = alloca i32, align 4
  %13 = alloca i64, align 8
  %14 = alloca ptr, align 8
  %15 = alloca ptr, align 8
  %16 = alloca i32, align 4
  %17 = alloca ptr, align 8
  %18 = alloca i32, align 4
  %19 = alloca ptr, align 8
  %20 = alloca ptr, align 8
  %21 = alloca i32, align 4
  %22 = alloca i64, align 8
  %23 = alloca ptr, align 8
  %24 = alloca ptr, align 8
  call void @llvm.lifetime.start.p0(i64 4, ptr %1) #9
  call void @llvm.lifetime.start.p0(i64 4, ptr %2) #9
  call void @llvm.lifetime.start.p0(i64 4, ptr %3) #9
  call void @llvm.lifetime.start.p0(i64 4, ptr %4) #9
  call void @llvm.lifetime.start.p0(i64 8, ptr %5) #9
  call void @llvm.lifetime.start.p0(i64 4, ptr %6) #9
  call void @llvm.lifetime.start.p0(i64 4, ptr %7) #9
  %25 = load ptr, ptr @MainLWLockArray, align 8
  %26 = getelementptr inbounds %union.LWLockPadded, ptr %25, i64 13
  %27 = call zeroext i1 @LWLockAcquire(ptr noundef %26, i32 noundef 1)
  %28 = load ptr, ptr @MultiXactState, align 8
  %29 = getelementptr inbounds nuw %struct.MultiXactStateData, ptr %28, i32 0, i32 0
  %30 = load i32, ptr %29, align 4
  store i32 %30, ptr %1, align 4
  %31 = load ptr, ptr @MultiXactState, align 8
  %32 = getelementptr inbounds nuw %struct.MultiXactStateData, ptr %31, i32 0, i32 1
  %33 = load i32, ptr %32, align 4
  store i32 %33, ptr %2, align 4
  %34 = load ptr, ptr @MultiXactState, align 8
  %35 = getelementptr inbounds nuw %struct.MultiXactStateData, ptr %34, i32 0, i32 3
  %36 = load i32, ptr %35, align 4
  store i32 %36, ptr %3, align 4
  %37 = load ptr, ptr @MultiXactState, align 8
  %38 = getelementptr inbounds nuw %struct.MultiXactStateData, ptr %37, i32 0, i32 4
  %39 = load i32, ptr %38, align 4
  store i32 %39, ptr %4, align 4
  %40 = load ptr, ptr @MainLWLockArray, align 8
  %41 = getelementptr inbounds %union.LWLockPadded, ptr %40, i64 13
  call void @LWLockRelease(ptr noundef %41)
  %42 = load i32, ptr %1, align 4
  %43 = call i64 @MultiXactIdToOffsetPage(i32 noundef %42)
  store i64 %43, ptr %5, align 8
  %44 = load ptr, ptr @MultiXactOffsetCtlData, align 8
  %45 = getelementptr inbounds nuw %struct.SlruSharedData, ptr %44, i32 0, i32 11
  %46 = load i64, ptr %5, align 8
  call void @pg_atomic_write_u64(ptr noundef %45, i64 noundef %46)
  %47 = load i32, ptr %1, align 4
  %48 = call i32 @MultiXactIdToOffsetEntry(i32 noundef %47)
  store i32 %48, ptr %6, align 4
  %49 = load i32, ptr %6, align 4
  %50 = icmp ne i32 %49, 0
  br i1 %50, label %51, label %118

51:                                               ; preds = %0
  call void @llvm.lifetime.start.p0(i64 4, ptr %8) #9
  call void @llvm.lifetime.start.p0(i64 8, ptr %9) #9
  call void @llvm.lifetime.start.p0(i64 8, ptr %10) #9
  %52 = load i64, ptr %5, align 8
  %53 = call ptr @SimpleLruGetBankLock(ptr noundef @MultiXactOffsetCtlData, i64 noundef %52)
  store ptr %53, ptr %10, align 8
  %54 = load ptr, ptr %10, align 8
  %55 = call zeroext i1 @LWLockAcquire(ptr noundef %54, i32 noundef 0)
  %56 = load i64, ptr %5, align 8
  %57 = load i32, ptr %1, align 4
  %58 = call i32 @SimpleLruReadPage(ptr noundef @MultiXactOffsetCtlData, i64 noundef %56, i1 noundef zeroext true, i32 noundef %57)
  store i32 %58, ptr %8, align 4
  %59 = load ptr, ptr @MultiXactOffsetCtlData, align 8
  %60 = getelementptr inbounds nuw %struct.SlruSharedData, ptr %59, i32 0, i32 1
  %61 = load ptr, ptr %60, align 8
  %62 = load i32, ptr %8, align 4
  %63 = sext i32 %62 to i64
  %64 = getelementptr inbounds ptr, ptr %61, i64 %63
  %65 = load ptr, ptr %64, align 8
  store ptr %65, ptr %9, align 8
  %66 = load i32, ptr %6, align 4
  %67 = load ptr, ptr %9, align 8
  %68 = sext i32 %66 to i64
  %69 = getelementptr inbounds i32, ptr %67, i64 %68
  store ptr %69, ptr %9, align 8
  br label %70

70:                                               ; preds = %51
  call void @llvm.lifetime.start.p0(i64 8, ptr %11) #9
  %71 = load ptr, ptr %9, align 8
  store ptr %71, ptr %11, align 8
  call void @llvm.lifetime.start.p0(i64 4, ptr %12) #9
  store i32 0, ptr %12, align 4
  call void @llvm.lifetime.start.p0(i64 8, ptr %13) #9
  %72 = load i32, ptr %6, align 4
  %73 = sext i32 %72 to i64
  %74 = mul i64 %73, 4
  %75 = sub i64 8192, %74
  store i64 %75, ptr %13, align 8
  %76 = load ptr, ptr %11, align 8
  %77 = ptrtoint ptr %76 to i64
  %78 = and i64 %77, 7
  %79 = icmp eq i64 %78, 0
  br i1 %79, label %80, label %103

80:                                               ; preds = %70
  %81 = load i64, ptr %13, align 8
  %82 = and i64 %81, 7
  %83 = icmp eq i64 %82, 0
  br i1 %83, label %84, label %103

84:                                               ; preds = %80
  %85 = load i32, ptr %12, align 4
  %86 = icmp eq i32 %85, 0
  br i1 %86, label %87, label %103

87:                                               ; preds = %84
  %88 = load i64, ptr %13, align 8
  %89 = icmp ule i64 %88, 1024
  br i1 %89, label %90, label %103

90:                                               ; preds = %87
  call void @llvm.lifetime.start.p0(i64 8, ptr %14) #9
  %91 = load ptr, ptr %11, align 8
  store ptr %91, ptr %14, align 8
  call void @llvm.lifetime.start.p0(i64 8, ptr %15) #9
  %92 = load ptr, ptr %14, align 8
  %93 = load i64, ptr %13, align 8
  %94 = getelementptr inbounds nuw i8, ptr %92, i64 %93
  store ptr %94, ptr %15, align 8
  br label %95

95:                                               ; preds = %99, %90
  %96 = load ptr, ptr %14, align 8
  %97 = load ptr, ptr %15, align 8
  %98 = icmp ult ptr %96, %97
  br i1 %98, label %99, label %102

99:                                               ; preds = %95
  %100 = load ptr, ptr %14, align 8
  %101 = getelementptr inbounds nuw i64, ptr %100, i32 1
  store ptr %101, ptr %14, align 8
  store i64 0, ptr %100, align 8
  br label %95, !llvm.loop !19

102:                                              ; preds = %95
  call void @llvm.lifetime.end.p0(i64 8, ptr %15) #9
  call void @llvm.lifetime.end.p0(i64 8, ptr %14) #9
  br label %108

103:                                              ; preds = %87, %84, %80, %70
  %104 = load ptr, ptr %11, align 8
  %105 = load i32, ptr %12, align 4
  %106 = trunc i32 %105 to i8
  %107 = load i64, ptr %13, align 8
  call void @llvm.memset.p0.i64(ptr align 1 %104, i8 %106, i64 %107, i1 false)
  br label %108

108:                                              ; preds = %103, %102
  call void @llvm.lifetime.end.p0(i64 8, ptr %13) #9
  call void @llvm.lifetime.end.p0(i64 4, ptr %12) #9
  call void @llvm.lifetime.end.p0(i64 8, ptr %11) #9
  br label %109

109:                                              ; preds = %108
  br label %110

110:                                              ; preds = %109
  %111 = load ptr, ptr @MultiXactOffsetCtlData, align 8
  %112 = getelementptr inbounds nuw %struct.SlruSharedData, ptr %111, i32 0, i32 3
  %113 = load ptr, ptr %112, align 8
  %114 = load i32, ptr %8, align 4
  %115 = sext i32 %114 to i64
  %116 = getelementptr inbounds i8, ptr %113, i64 %115
  store i8 1, ptr %116, align 1
  %117 = load ptr, ptr %10, align 8
  call void @LWLockRelease(ptr noundef %117)
  call void @llvm.lifetime.end.p0(i64 8, ptr %10) #9
  call void @llvm.lifetime.end.p0(i64 8, ptr %9) #9
  call void @llvm.lifetime.end.p0(i64 4, ptr %8) #9
  br label %118

118:                                              ; preds = %110, %0
  %119 = load i32, ptr %2, align 4
  %120 = call i64 @MXOffsetToMemberPage(i32 noundef %119)
  store i64 %120, ptr %5, align 8
  %121 = load ptr, ptr @MultiXactMemberCtlData, align 8
  %122 = getelementptr inbounds nuw %struct.SlruSharedData, ptr %121, i32 0, i32 11
  %123 = load i64, ptr %5, align 8
  call void @pg_atomic_write_u64(ptr noundef %122, i64 noundef %123)
  %124 = load i32, ptr %2, align 4
  %125 = call i32 @MXOffsetToFlagsOffset(i32 noundef %124)
  store i32 %125, ptr %7, align 4
  %126 = load i32, ptr %7, align 4
  %127 = icmp ne i32 %126, 0
  br i1 %127, label %128, label %195

128:                                              ; preds = %118
  call void @llvm.lifetime.start.p0(i64 4, ptr %16) #9
  call void @llvm.lifetime.start.p0(i64 8, ptr %17) #9
  call void @llvm.lifetime.start.p0(i64 4, ptr %18) #9
  call void @llvm.lifetime.start.p0(i64 8, ptr %19) #9
  %129 = load i64, ptr %5, align 8
  %130 = call ptr @SimpleLruGetBankLock(ptr noundef @MultiXactMemberCtlData, i64 noundef %129)
  store ptr %130, ptr %19, align 8
  %131 = load ptr, ptr %19, align 8
  %132 = call zeroext i1 @LWLockAcquire(ptr noundef %131, i32 noundef 0)
  %133 = load i32, ptr %2, align 4
  %134 = call i32 @MXOffsetToMemberOffset(i32 noundef %133)
  store i32 %134, ptr %18, align 4
  %135 = load i64, ptr %5, align 8
  %136 = load i32, ptr %2, align 4
  %137 = call i32 @SimpleLruReadPage(ptr noundef @MultiXactMemberCtlData, i64 noundef %135, i1 noundef zeroext true, i32 noundef %136)
  store i32 %137, ptr %16, align 4
  %138 = load ptr, ptr @MultiXactMemberCtlData, align 8
  %139 = getelementptr inbounds nuw %struct.SlruSharedData, ptr %138, i32 0, i32 1
  %140 = load ptr, ptr %139, align 8
  %141 = load i32, ptr %16, align 4
  %142 = sext i32 %141 to i64
  %143 = getelementptr inbounds ptr, ptr %140, i64 %142
  %144 = load ptr, ptr %143, align 8
  %145 = load i32, ptr %18, align 4
  %146 = sext i32 %145 to i64
  %147 = getelementptr inbounds i8, ptr %144, i64 %146
  store ptr %147, ptr %17, align 8
  br label %148

148:                                              ; preds = %128
  call void @llvm.lifetime.start.p0(i64 8, ptr %20) #9
  %149 = load ptr, ptr %17, align 8
  store ptr %149, ptr %20, align 8
  call void @llvm.lifetime.start.p0(i64 4, ptr %21) #9
  store i32 0, ptr %21, align 4
  call void @llvm.lifetime.start.p0(i64 8, ptr %22) #9
  %150 = load i32, ptr %18, align 4
  %151 = sub i32 8192, %150
  %152 = sext i32 %151 to i64
  store i64 %152, ptr %22, align 8
  %153 = load ptr, ptr %20, align 8
  %154 = ptrtoint ptr %153 to i64
  %155 = and i64 %154, 7
  %156 = icmp eq i64 %155, 0
  br i1 %156, label %157, label %180

157:                                              ; preds = %148
  %158 = load i64, ptr %22, align 8
  %159 = and i64 %158, 7
  %160 = icmp eq i64 %159, 0
  br i1 %160, label %161, label %180

161:                                              ; preds = %157
  %162 = load i32, ptr %21, align 4
  %163 = icmp eq i32 %162, 0
  br i1 %163, label %164, label %180

164:                                              ; preds = %161
  %165 = load i64, ptr %22, align 8
  %166 = icmp ule i64 %165, 1024
  br i1 %166, label %167, label %180

167:                                              ; preds = %164
  call void @llvm.lifetime.start.p0(i64 8, ptr %23) #9
  %168 = load ptr, ptr %20, align 8
  store ptr %168, ptr %23, align 8
  call void @llvm.lifetime.start.p0(i64 8, ptr %24) #9
  %169 = load ptr, ptr %23, align 8
  %170 = load i64, ptr %22, align 8
  %171 = getelementptr inbounds nuw i8, ptr %169, i64 %170
  store ptr %171, ptr %24, align 8
  br label %172

172:                                              ; preds = %176, %167
  %173 = load ptr, ptr %23, align 8
  %174 = load ptr, ptr %24, align 8
  %175 = icmp ult ptr %173, %174
  br i1 %175, label %176, label %179

176:                                              ; preds = %172
  %177 = load ptr, ptr %23, align 8
  %178 = getelementptr inbounds nuw i64, ptr %177, i32 1
  store ptr %178, ptr %23, align 8
  store i64 0, ptr %177, align 8
  br label %172, !llvm.loop !20

179:                                              ; preds = %172
  call void @llvm.lifetime.end.p0(i64 8, ptr %24) #9
  call void @llvm.lifetime.end.p0(i64 8, ptr %23) #9
  br label %185

180:                                              ; preds = %164, %161, %157, %148
  %181 = load ptr, ptr %20, align 8
  %182 = load i32, ptr %21, align 4
  %183 = trunc i32 %182 to i8
  %184 = load i64, ptr %22, align 8
  call void @llvm.memset.p0.i64(ptr align 1 %181, i8 %183, i64 %184, i1 false)
  br label %185

185:                                              ; preds = %180, %179
  call void @llvm.lifetime.end.p0(i64 8, ptr %22) #9
  call void @llvm.lifetime.end.p0(i64 4, ptr %21) #9
  call void @llvm.lifetime.end.p0(i64 8, ptr %20) #9
  br label %186

186:                                              ; preds = %185
  br label %187

187:                                              ; preds = %186
  %188 = load ptr, ptr @MultiXactMemberCtlData, align 8
  %189 = getelementptr inbounds nuw %struct.SlruSharedData, ptr %188, i32 0, i32 3
  %190 = load ptr, ptr %189, align 8
  %191 = load i32, ptr %16, align 4
  %192 = sext i32 %191 to i64
  %193 = getelementptr inbounds i8, ptr %190, i64 %192
  store i8 1, ptr %193, align 1
  %194 = load ptr, ptr %19, align 8
  call void @LWLockRelease(ptr noundef %194)
  call void @llvm.lifetime.end.p0(i64 8, ptr %19) #9
  call void @llvm.lifetime.end.p0(i64 4, ptr %18) #9
  call void @llvm.lifetime.end.p0(i64 8, ptr %17) #9
  call void @llvm.lifetime.end.p0(i64 4, ptr %16) #9
  br label %195

195:                                              ; preds = %187, %118
  %196 = load ptr, ptr @MainLWLockArray, align 8
  %197 = getelementptr inbounds %union.LWLockPadded, ptr %196, i64 13
  %198 = call zeroext i1 @LWLockAcquire(ptr noundef %197, i32 noundef 0)
  %199 = load ptr, ptr @MultiXactState, align 8
  %200 = getelementptr inbounds nuw %struct.MultiXactStateData, ptr %199, i32 0, i32 2
  store i8 1, ptr %200, align 4
  %201 = load ptr, ptr @MainLWLockArray, align 8
  %202 = getelementptr inbounds %union.LWLockPadded, ptr %201, i64 13
  call void @LWLockRelease(ptr noundef %202)
  %203 = load i32, ptr %3, align 4
  %204 = load i32, ptr %4, align 4
  call void @SetMultiXactIdLimit(i32 noundef %203, i32 noundef %204, i1 noundef zeroext true)
  call void @llvm.lifetime.end.p0(i64 4, ptr %7) #9
  call void @llvm.lifetime.end.p0(i64 4, ptr %6) #9
  call void @llvm.lifetime.end.p0(i64 8, ptr %5) #9
  call void @llvm.lifetime.end.p0(i64 4, ptr %4) #9
  call void @llvm.lifetime.end.p0(i64 4, ptr %3) #9
  call void @llvm.lifetime.end.p0(i64 4, ptr %2) #9
  call void @llvm.lifetime.end.p0(i64 4, ptr %1) #9
  ret void
}