; Function Attrs: nounwind uwtable
define dso_local void @TrimMultiXact() local_unnamed_addr #0 {
  %1 = load ptr, ptr @MainLWLockArray, align 8
  %2 = getelementptr inbounds nuw i8, ptr %1, i64 1664
  %3 = tail call zeroext i1 @LWLockAcquire(ptr noundef nonnull %2, i32 noundef 1) #13
  %4 = load ptr, ptr @MultiXactState, align 8
  %5 = load i32, ptr %4, align 4
  %6 = getelementptr inbounds nuw i8, ptr %4, i64 4
  %7 = load i32, ptr %6, align 4
  %8 = getelementptr inbounds nuw i8, ptr %4, i64 12
  %9 = load i32, ptr %8, align 4
  %10 = getelementptr inbounds nuw i8, ptr %4, i64 16
  %11 = load i32, ptr %10, align 4
  %12 = load ptr, ptr @MainLWLockArray, align 8
  %13 = getelementptr inbounds nuw i8, ptr %12, i64 1664
  tail call void @LWLockRelease(ptr noundef nonnull %13) #13
  %14 = lshr i32 %5, 11
  %15 = zext nneg i32 %14 to i64
  %16 = load ptr, ptr @MultiXactOffsetCtlData, align 8
  %17 = getelementptr inbounds nuw i8, ptr %16, i64 88
  store volatile i64 %15, ptr %17, align 8
  %18 = and i32 %5, 2047
  %.not = icmp eq i32 %18, 0
  br i1 %.not, label %58, label %19

19:                                               ; preds = %0
  %MultiXactOffsetCtlData.val70 = load i16, ptr getelementptr inbounds nuw (i8, ptr @MultiXactOffsetCtlData, i64 8), align 8
  %20 = getelementptr i8, ptr %16, i64 56
  %MultiXactOffsetCtlData.val.val = load ptr, ptr %20, align 8
  %.rhs.trunc73 = zext i16 %MultiXactOffsetCtlData.val70 to i32
  %21 = urem i32 %14, %.rhs.trunc73
  %22 = shl nuw nsw i32 %21, 7
  %23 = zext nneg i32 %22 to i64
  %24 = getelementptr inbounds nuw i8, ptr %MultiXactOffsetCtlData.val.val, i64 %23
  %25 = tail call zeroext i1 @LWLockAcquire(ptr noundef %24, i32 noundef 0) #13
  %26 = tail call i32 @SimpleLruReadPage(ptr noundef nonnull @MultiXactOffsetCtlData, i64 noundef %15, i1 noundef zeroext true, i32 noundef %5) #13
  %27 = load ptr, ptr @MultiXactOffsetCtlData, align 8
  %28 = getelementptr inbounds nuw i8, ptr %27, i64 8
  %29 = load ptr, ptr %28, align 8
  %30 = sext i32 %26 to i64
  %31 = getelementptr inbounds ptr, ptr %29, i64 %30
  %32 = load ptr, ptr %31, align 8
  %33 = ptrtoint ptr %32 to i64
  %34 = zext nneg i32 %18 to i64
  %35 = getelementptr inbounds nuw i32, ptr %32, i64 %34
  %36 = shl nuw nsw i64 %34, 2
  %37 = sub nuw nsw i64 8192, %36
  %38 = ptrtoint ptr %35 to i64
  %39 = and i64 %38, 7
  %40 = icmp eq i64 %39, 0
  br i1 %40, label %41, label %53

41:                                               ; preds = %19
  %42 = and i64 %37, 4
  %43 = icmp eq i64 %42, 0
  %44 = icmp samesign ugt i32 %18, 1791
  %or.cond3 = select i1 %43, i1 %44, i1 false
  br i1 %or.cond3, label %.lr.ph.preheader, label %53

.lr.ph.preheader:                                 ; preds = %41
  %45 = add i64 %36, %33
  %46 = add i64 %45, 8
  %47 = add i64 %33, 8192
  %umax = tail call i64 @llvm.umax.i64(i64 %46, i64 %47)
  %48 = xor i64 %33, -1
  %49 = add i64 %umax, %48
  %50 = sub i64 %49, %36
  %51 = and i64 %50, -8
  %52 = add i64 %51, 8
  tail call void @llvm.memset.p0.i64(ptr nonnull align 8 %35, i8 0, i64 %52, i1 false)
  br label %.loopexit75

53:                                               ; preds = %41, %19
  tail call void @llvm.memset.p0.i64(ptr noundef nonnull align 1 dereferenceable(1) %35, i8 0, i64 %37, i1 false)
  br label %.loopexit75

.loopexit75:                                      ; preds = %.lr.ph.preheader, %53
  %54 = load ptr, ptr @MultiXactOffsetCtlData, align 8
  %55 = getelementptr inbounds nuw i8, ptr %54, i64 24
  %56 = load ptr, ptr %55, align 8
  %57 = getelementptr inbounds i8, ptr %56, i64 %30
  store i8 1, ptr %57, align 1
  tail call void @LWLockRelease(ptr noundef %24) #13
  br label %58

58:                                               ; preds = %.loopexit75, %0
  %59 = udiv i32 %7, 1636
  %60 = zext nneg i32 %59 to i64
  %61 = load ptr, ptr @MultiXactMemberCtlData, align 8
  %62 = getelementptr inbounds nuw i8, ptr %61, i64 88
  store volatile i64 %60, ptr %62, align 8
  %63 = lshr i32 %7, 2
  %64 = urem i32 %63, 409
  %.not68 = icmp eq i32 %64, 0
  br i1 %.not68, label %108, label %65

65:                                               ; preds = %58
  %narrow.i = mul nuw nsw i32 %64, 20
  %MultiXactMemberCtlData.val69 = load i16, ptr getelementptr inbounds nuw (i8, ptr @MultiXactMemberCtlData, i64 8), align 8
  %66 = getelementptr i8, ptr %61, i64 56
  %MultiXactMemberCtlData.val.val = load ptr, ptr %66, align 8
  %.rhs.trunc = zext i16 %MultiXactMemberCtlData.val69 to i32
  %67 = urem i32 %59, %.rhs.trunc
  %68 = shl nuw nsw i32 %67, 7
  %69 = zext nneg i32 %68 to i64
  %70 = getelementptr inbounds nuw i8, ptr %MultiXactMemberCtlData.val.val, i64 %69
  %71 = tail call zeroext i1 @LWLockAcquire(ptr noundef %70, i32 noundef 0) #13
  %72 = shl i32 %7, 2
  %73 = and i32 %72, 12
  %74 = add nuw nsw i32 %73, 4
  %narrow.i71 = add nuw nsw i32 %74, %narrow.i
  %75 = tail call i32 @SimpleLruReadPage(ptr noundef nonnull @MultiXactMemberCtlData, i64 noundef %60, i1 noundef zeroext true, i32 noundef %7) #13
  %76 = load ptr, ptr @MultiXactMemberCtlData, align 8
  %77 = getelementptr inbounds nuw i8, ptr %76, i64 8
  %78 = load ptr, ptr %77, align 8
  %79 = sext i32 %75 to i64
  %80 = getelementptr inbounds ptr, ptr %78, i64 %79
  %81 = load ptr, ptr %80, align 8
  %82 = ptrtoint ptr %81 to i64
  %83 = zext nneg i32 %narrow.i71 to i64
  %84 = getelementptr inbounds nuw i8, ptr %81, i64 %83
  %85 = sub nuw nsw i32 8192, %narrow.i71
  %86 = zext nneg i32 %85 to i64
  %87 = ptrtoint ptr %84 to i64
  %88 = and i64 %87, 7
  %89 = icmp eq i64 %88, 0
  br i1 %89, label %90, label %103

90:                                               ; preds = %65
  %91 = and i64 %86, 4
  %92 = icmp eq i64 %91, 0
  %93 = icmp samesign ugt i32 %narrow.i71, 7167
  %or.cond7 = select i1 %92, i1 %93, i1 false
  br i1 %or.cond7, label %.lr.ph78.preheader, label %103

.lr.ph78.preheader:                               ; preds = %90
  %94 = add i64 %82, %86
  %95 = add i64 %94, %83
  %96 = add i64 %82, %83
  %97 = add i64 %96, 8
  %umax80 = tail call i64 @llvm.umax.i64(i64 %95, i64 %97)
  %98 = xor i64 %82, -1
  %99 = add i64 %umax80, %98
  %100 = sub i64 %99, %83
  %101 = and i64 %100, -8
  %102 = add i64 %101, 8
  tail call void @llvm.memset.p0.i64(ptr nonnull align 8 %84, i8 0, i64 %102, i1 false)
  br label %.loopexit

103:                                              ; preds = %90, %65
  tail call void @llvm.memset.p0.i64(ptr noundef nonnull align 1 dereferenceable(1) %84, i8 0, i64 %86, i1 false)
  br label %.loopexit

.loopexit:                                        ; preds = %.lr.ph78.preheader, %103
  %104 = load ptr, ptr @MultiXactMemberCtlData, align 8
  %105 = getelementptr inbounds nuw i8, ptr %104, i64 24
  %106 = load ptr, ptr %105, align 8
  %107 = getelementptr inbounds i8, ptr %106, i64 %79
  store i8 1, ptr %107, align 1
  tail call void @LWLockRelease(ptr noundef %70) #13
  br label %108

108:                                              ; preds = %.loopexit, %58
  %109 = load ptr, ptr @MainLWLockArray, align 8
  %110 = getelementptr inbounds nuw i8, ptr %109, i64 1664
  %111 = tail call zeroext i1 @LWLockAcquire(ptr noundef nonnull %110, i32 noundef 0) #13
  %112 = load ptr, ptr @MultiXactState, align 8
  %113 = getelementptr inbounds nuw i8, ptr %112, i64 8
  store i8 1, ptr %113, align 4
  %114 = load ptr, ptr @MainLWLockArray, align 8
  %115 = getelementptr inbounds nuw i8, ptr %114, i64 1664
  tail call void @LWLockRelease(ptr noundef nonnull %115) #13
  tail call void @SetMultiXactIdLimit(i32 noundef %9, i32 noundef %11, i1 noundef zeroext true)
  ret void
}